target datalayout = "e-m:e-p270:32:32-p271:32:32-p272:64:64-i64:64-i128:128-f80:128-n8:16:32:64-S128"
target triple = "x86_64-pc-linux-gnu"

%"class.std::__cxx11::basic_string" = type { %"struct.std::__cxx11::basic_string<char>::_Alloc_hider", i64, %union.anon }
%"struct.std::__cxx11::basic_string<char>::_Alloc_hider" = type { ptr }
%union.anon = type { i64, [8 x i8] }
%"class.std::allocator" = type { i8 }
%struct.CvTreeNodeIterator = type { ptr, i32, i32 }
%struct.CvTreeNode = type { i32, i32, ptr, ptr, ptr, ptr }

@.str.1 = private unnamed_addr constant [124 x i8] c"generated/home/dtcxzyw/WorkSpace/Projects/compilers/llvm-opt-benchmark/bench/opencv/opencv/modules/core/src/datastructs.cpp\00", align 1
@.str.50 = private unnamed_addr constant [22 x i8] c"NULL iterator pointer\00", align 1
@__func__.cvNextTreeNode = private unnamed_addr constant [15 x i8] c"cvNextTreeNode\00", align 1

; Function Attrs: mustprogress nounwind uwtable
define linkonce_odr hidden void @_ZNSt15__new_allocatorIcE10deallocateEPcm(ptr noundef nonnull align 1 dereferenceable(1) %0, ptr noundef %1, i64 noundef %2) #4 comdat align 2 {
  %4 = alloca ptr, align 8
  %5 = alloca ptr, align 8
  %6 = alloca i64, align 8
  store ptr %0, ptr %4, align 8, !tbaa !264
  store ptr %1, ptr %5, align 8, !tbaa !19
  store i64 %2, ptr %6, align 8, !tbaa !38
  %7 = load ptr, ptr %5, align 8, !tbaa !19
  call void @_ZdlPv(ptr noundef %7) #16
  ret void
}

; Function Attrs: mustprogress nounwind uwtable
define linkonce_odr hidden noundef ptr @_ZNSt19__ptr_traits_ptr_toIPKcS0_Lb0EE10pointer_toERS0_(ptr noundef nonnull align 1 dereferenceable(1) %0) #4 comdat align 2 {
  %2 = alloca ptr, align 8
  store ptr %0, ptr %2, align 8, !tbaa !19
  %3 = load ptr, ptr %2, align 8, !tbaa !19
  ret ptr %3
}

; Function Attrs: mustprogress uwtable
define linkonce_odr hidden void @_ZNSt16allocator_traitsISaIcEE10deallocateERS0_Pcm(ptr noundef nonnull align 1 dereferenceable(1) %0, ptr noundef %1, i64 noundef %2) #0 comdat align 2 {
  %4 = alloca ptr, align 8
  %5 = alloca ptr, align 8
  %6 = alloca i64, align 8
  store ptr %0, ptr %4, align 8, !tbaa !15
  store ptr %1, ptr %5, align 8, !tbaa !19
  store i64 %2, ptr %6, align 8, !tbaa !38
  %7 = load ptr, ptr %4, align 8, !tbaa !15
  %8 = load ptr, ptr %5, align 8, !tbaa !19
  %9 = load i64, ptr %6, align 8, !tbaa !38
  call void @_ZNSt15__new_allocatorIcE10deallocateEPcm(ptr noundef nonnull align 1 dereferenceable(1) %7, ptr noundef %8, i64 noundef %9)
  ret void
}

; Function Attrs: mustprogress nounwind uwtable
define available_externally noundef nonnull align 1 dereferenceable(1) ptr @_ZNSt7__cxx1112basic_stringIcSt11char_traitsIcESaIcEE16_M_get_allocatorEv(ptr noundef nonnull align 8 dereferenceable(32) %0) #4 align 2 {
  %2 = alloca ptr, align 8
  store ptr %0, ptr %2, align 8, !tbaa !17
  %3 = load ptr, ptr %2, align 8
  %4 = getelementptr inbounds nuw %"class.std::__cxx11::basic_string", ptr %3, i32 0, i32 0
  ret ptr %4
}

; Function Attrs: mustprogress nounwind uwtable
define available_externally noundef ptr @_ZNKSt7__cxx1112basic_stringIcSt11char_traitsIcESaIcEE13_M_local_dataEv(ptr noundef nonnull align 8 dereferenceable(32) %0) #4 align 2 {
  %2 = alloca ptr, align 8
  store ptr %0, ptr %2, align 8, !tbaa !17
  %3 = load ptr, ptr %2, align 8
  %4 = getelementptr inbounds nuw %"class.std::__cxx11::basic_string", ptr %3, i32 0, i32 2
  %5 = getelementptr inbounds [16 x i8], ptr %4, i64 0, i64 0
  %6 = call noundef ptr @_ZNSt19__ptr_traits_ptr_toIPKcS0_Lb0EE10pointer_toERS0_(ptr noundef nonnull align 1 dereferenceable(1) %5) #13
  ret ptr %6
}

; Function Attrs: mustprogress nounwind uwtable
define available_externally noundef ptr @_ZNKSt7__cxx1112basic_stringIcSt11char_traitsIcESaIcEE7_M_dataEv(ptr noundef nonnull align 8 dereferenceable(32) %0) #4 align 2 {
  %2 = alloca ptr, align 8
  store ptr %0, ptr %2, align 8, !tbaa !17
  %3 = load ptr, ptr %2, align 8
  %4 = getelementptr inbounds nuw %"class.std::__cxx11::basic_string", ptr %3, i32 0, i32 0
  %5 = getelementptr inbounds nuw %"struct.std::__cxx11::basic_string<char>::_Alloc_hider", ptr %4, i32 0, i32 0
  %6 = load ptr, ptr %5, align 8, !tbaa !269
  ret ptr %6
}

; Function Attrs: mustprogress nounwind uwtable
define available_externally void @_ZNSt7__cxx1112basic_stringIcSt11char_traitsIcESaIcEE10_M_destroyEm(ptr noundef nonnull align 8 dereferenceable(32) %0, i64 noundef %1) #4 align 2 personality ptr @__gxx_personality_v0 {
  %3 = alloca ptr, align 8
  %4 = alloca i64, align 8
  %5 = alloca ptr, align 8
  %6 = alloca i32, align 4
  store ptr %0, ptr %3, align 8, !tbaa !17
  store i64 %1, ptr %4, align 8, !tbaa !38
  %7 = load ptr, ptr %3, align 8
  %8 = invoke noundef nonnull align 1 dereferenceable(1) ptr @_ZNSt7__cxx1112basic_stringIcSt11char_traitsIcESaIcEE16_M_get_allocatorEv(ptr noundef nonnull align 8 dereferenceable(32) %7)
          to label %9 unwind label %14

9:                                                ; preds = %2
  %10 = call noundef ptr @_ZNKSt7__cxx1112basic_stringIcSt11char_traitsIcESaIcEE7_M_dataEv(ptr noundef nonnull align 8 dereferenceable(32) %7)
  %11 = load i64, ptr %4, align 8, !tbaa !38
  %12 = add i64 %11, 1
  invoke void @_ZNSt16allocator_traitsISaIcEE10deallocateERS0_Pcm(ptr noundef nonnull align 1 dereferenceable(1) %8, ptr noundef %10, i64 noundef %12)
          to label %13 unwind label %14

13:                                               ; preds = %9
  ret void

14:                                               ; preds = %9, %2
  %15 = landingpad { ptr, i32 }
          filter [0 x ptr] zeroinitializer
  %16 = extractvalue { ptr, i32 } %15, 0
  store ptr %16, ptr %5, align 8
  %17 = extractvalue { ptr, i32 } %15, 1
  store i32 %17, ptr %6, align 4
  br label %18

18:                                               ; preds = %14
  %19 = load ptr, ptr %5, align 8
  call void @__cxa_call_unexpected(ptr %19) #14
  unreachable
}

; Function Attrs: mustprogress uwtable
define available_externally noundef zeroext i1 @_ZNKSt7__cxx1112basic_stringIcSt11char_traitsIcESaIcEE11_M_is_localEv(ptr noundef nonnull align 8 dereferenceable(32) %0) #0 align 2 {
  %2 = alloca i1, align 1
  %3 = alloca ptr, align 8
  store ptr %0, ptr %3, align 8, !tbaa !17
  %4 = load ptr, ptr %3, align 8
  %5 = call noundef ptr @_ZNKSt7__cxx1112basic_stringIcSt11char_traitsIcESaIcEE7_M_dataEv(ptr noundef nonnull align 8 dereferenceable(32) %4)
  %6 = call noundef ptr @_ZNKSt7__cxx1112basic_stringIcSt11char_traitsIcESaIcEE13_M_local_dataEv(ptr noundef nonnull align 8 dereferenceable(32) %4)
  %7 = icmp eq ptr %5, %6
  br i1 %7, label %8, label %14

8:                                                ; preds = %1
  %9 = getelementptr inbounds nuw %"class.std::__cxx11::basic_string", ptr %4, i32 0, i32 1
  %10 = load i64, ptr %9, align 8, !tbaa !266
  %11 = icmp ugt i64 %10, 15
  br i1 %11, label %12, label %13

12:                                               ; preds = %8
  unreachable

13:                                               ; preds = %8
  store i1 true, ptr %2, align 1
  br label %15

14:                                               ; preds = %1
  store i1 false, ptr %2, align 1
  br label %15

15:                                               ; preds = %14, %13
  %16 = load i1, ptr %2, align 1
  ret i1 %16
}

; Function Attrs: noinline noreturn nounwind uwtable
define linkonce_odr hidden void @__clang_call_terminate(ptr noundef %0) #9 comdat {
  %2 = call ptr @__cxa_begin_catch(ptr %0) #13
  call void @_ZSt9terminatev() #15
  unreachable
}

; Function Attrs: mustprogress uwtable
define available_externally void @_ZNSt7__cxx1112basic_stringIcSt11char_traitsIcESaIcEE10_M_disposeEv(ptr noundef nonnull align 8 dereferenceable(32) %0) #0 align 2 {
  %2 = alloca ptr, align 8
  store ptr %0, ptr %2, align 8, !tbaa !17
  %3 = load ptr, ptr %2, align 8
  %4 = call noundef zeroext i1 @_ZNKSt7__cxx1112basic_stringIcSt11char_traitsIcESaIcEE11_M_is_localEv(ptr noundef nonnull align 8 dereferenceable(32) %3)
  br i1 %4, label %8, label %5

5:                                                ; preds = %1
  %6 = getelementptr inbounds nuw %"class.std::__cxx11::basic_string", ptr %3, i32 0, i32 2
  %7 = load i64, ptr %6, align 8, !tbaa !62
  call void @_ZNSt7__cxx1112basic_stringIcSt11char_traitsIcESaIcEE10_M_destroyEm(ptr noundef nonnull align 8 dereferenceable(32) %3, i64 noundef %7) #13
  br label %8

8:                                                ; preds = %5, %1
  ret void
}

; Function Attrs: mustprogress nounwind uwtable
define linkonce_odr hidden void @_ZNSt15__new_allocatorIcEC2Ev(ptr noundef nonnull align 1 dereferenceable(1) %0) unnamed_addr #4 comdat align 2 {
  %2 = alloca ptr, align 8
  store ptr %0, ptr %2, align 8, !tbaa !264
  ret void
}

; Function Attrs: mustprogress nounwind uwtable
define linkonce_odr hidden void @_ZNSt15__new_allocatorIcED2Ev(ptr noundef nonnull align 1 dereferenceable(1) %0) unnamed_addr #4 comdat align 2 {
  %2 = alloca ptr, align 8
  store ptr %0, ptr %2, align 8, !tbaa !264
  ret void
}

; Function Attrs: mustprogress nounwind uwtable
define available_externally void @_ZNSt7__cxx1112basic_stringIcSt11char_traitsIcESaIcEED2Ev(ptr noundef nonnull align 8 dereferenceable(32) %0) unnamed_addr #4 align 2 personality ptr @__gxx_personality_v0 {
  %2 = alloca ptr, align 8
  store ptr %0, ptr %2, align 8, !tbaa !17
  %3 = load ptr, ptr %2, align 8
  invoke void @_ZNSt7__cxx1112basic_stringIcSt11char_traitsIcESaIcEE10_M_disposeEv(ptr noundef nonnull align 8 dereferenceable(32) %3)
          to label %4 unwind label %6

4:                                                ; preds = %1
  %5 = getelementptr inbounds nuw %"class.std::__cxx11::basic_string", ptr %3, i32 0, i32 0
  call void @_ZNSt15__new_allocatorIcED2Ev(ptr noundef nonnull align 8 dereferenceable(8) %5) #13
  ret void

6:                                                ; preds = %1
  %7 = landingpad { ptr, i32 }
          catch ptr null
  %8 = extractvalue { ptr, i32 } %7, 0
  call void @__clang_call_terminate(ptr %8) #15
  unreachable
}

; Function Attrs: mustprogress nounwind uwtable
define available_externally void @_ZNSaIcEC2Ev(ptr noundef nonnull align 1 dereferenceable(1) %0) unnamed_addr #4 align 2 {
  %2 = alloca ptr, align 8
  store ptr %0, ptr %2, align 8, !tbaa !15
  %3 = load ptr, ptr %2, align 8
  call void @_ZNSt15__new_allocatorIcEC2Ev(ptr noundef nonnull align 1 dereferenceable(1) %3) #13
  ret void
}

; Function Attrs: mustprogress uwtable
define ptr @cvNextTreeNode(ptr noundef %0) #0 personality ptr @__gxx_personality_v0 {
  %2 = alloca ptr, align 8
  %3 = alloca ptr, align 8
  %4 = alloca ptr, align 8
  %5 = alloca i32, align 4
  %6 = alloca %"class.std::__cxx11::basic_string", align 8
  %7 = alloca %"class.std::allocator", align 1
  %8 = alloca ptr, align 8
  %9 = alloca i32, align 4
  store ptr %0, ptr %2, align 8, !tbaa !248
  call void @llvm.lifetime.start.p0(i64 8, ptr %3) #13
  store ptr null, ptr %3, align 8, !tbaa !254
  call void @llvm.lifetime.start.p0(i64 8, ptr %4) #13
  call void @llvm.lifetime.start.p0(i64 4, ptr %5) #13
  %10 = load ptr, ptr %2, align 8, !tbaa !248
  %11 = icmp ne ptr %10, null
  br i1 %11, label %24, label %12

12:                                               ; preds = %1
  call void @llvm.lifetime.start.p0(i64 32, ptr %6) #13
  call void @llvm.lifetime.start.p0(i64 1, ptr %7) #13
  call void @_ZNSaIcEC2Ev(ptr noundef nonnull align 1 dereferenceable(1) %7) #13
  invoke void @_ZNSt7__cxx1112basic_stringIcSt11char_traitsIcESaIcEEC2EPKcRKS3_(ptr noundef nonnull align 8 dereferenceable(32) %6, ptr noundef @.str.50, ptr noundef nonnull align 1 dereferenceable(1) %7)
          to label %13 unwind label %15

13:                                               ; preds = %12
  invoke void @_ZN2cv5errorEiRKNSt7__cxx1112basic_stringIcSt11char_traitsIcESaIcEEEPKcS9_i(i32 noundef -27, ptr noundef nonnull align 8 dereferenceable(32) %6, ptr noundef @__func__.cvNextTreeNode, ptr noundef @.str.1, i32 noundef 3462) #14
          to label %14 unwind label %19

14:                                               ; preds = %13
  unreachable

15:                                               ; preds = %12
  %16 = landingpad { ptr, i32 }
          cleanup
  %17 = extractvalue { ptr, i32 } %16, 0
  store ptr %17, ptr %8, align 8
  %18 = extractvalue { ptr, i32 } %16, 1
  store i32 %18, ptr %9, align 4
  br label %23

19:                                               ; preds = %13
  %20 = landingpad { ptr, i32 }
          cleanup
  %21 = extractvalue { ptr, i32 } %20, 0
  store ptr %21, ptr %8, align 8
  %22 = extractvalue { ptr, i32 } %20, 1
  store i32 %22, ptr %9, align 4
  call void @_ZNSt7__cxx1112basic_stringIcSt11char_traitsIcESaIcEED2Ev(ptr noundef nonnull align 8 dereferenceable(32) %6) #13
  br label %23

23:                                               ; preds = %19, %15
  call void @_ZNSt15__new_allocatorIcED2Ev(ptr noundef nonnull align 1 dereferenceable(1) %7) #13
  call void @llvm.lifetime.end.p0(i64 1, ptr %7) #13
  call void @llvm.lifetime.end.p0(i64 32, ptr %6) #13
  call void @llvm.lifetime.end.p0(i64 4, ptr %5) #13
  call void @llvm.lifetime.end.p0(i64 8, ptr %4) #13
  call void @llvm.lifetime.end.p0(i64 8, ptr %3) #13
  br label %90

24:                                               ; preds = %1
  %25 = load ptr, ptr %2, align 8, !tbaa !248
  %26 = getelementptr inbounds nuw %struct.CvTreeNodeIterator, ptr %25, i32 0, i32 0
  %27 = load ptr, ptr %26, align 8, !tbaa !250
  store ptr %27, ptr %4, align 8, !tbaa !254
  store ptr %27, ptr %3, align 8, !tbaa !254
  %28 = load ptr, ptr %2, align 8, !tbaa !248
  %29 = getelementptr inbounds nuw %struct.CvTreeNodeIterator, ptr %28, i32 0, i32 1
  %30 = load i32, ptr %29, align 8, !tbaa !252
  store i32 %30, ptr %5, align 4, !tbaa !3
  %31 = load ptr, ptr %4, align 8, !tbaa !254
  %32 = icmp ne ptr %31, null
  br i1 %32, label %33, label %82

33:                                               ; preds = %24
  %34 = load ptr, ptr %4, align 8, !tbaa !254
  %35 = getelementptr inbounds nuw %struct.CvTreeNode, ptr %34, i32 0, i32 5
  %36 = load ptr, ptr %35, align 8, !tbaa !256
  %37 = icmp ne ptr %36, null
  br i1 %37, label %38, label %51

38:                                               ; preds = %33
  %39 = load i32, ptr %5, align 4, !tbaa !3
  %40 = add nsw i32 %39, 1
  %41 = load ptr, ptr %2, align 8, !tbaa !248
  %42 = getelementptr inbounds nuw %struct.CvTreeNodeIterator, ptr %41, i32 0, i32 2
  %43 = load i32, ptr %42, align 4, !tbaa !253
  %44 = icmp slt i32 %40, %43
  br i1 %44, label %45, label %51

45:                                               ; preds = %38
  %46 = load ptr, ptr %4, align 8, !tbaa !254
  %47 = getelementptr inbounds nuw %struct.CvTreeNode, ptr %46, i32 0, i32 5
  %48 = load ptr, ptr %47, align 8, !tbaa !256
  store ptr %48, ptr %4, align 8, !tbaa !254
  %49 = load i32, ptr %5, align 4, !tbaa !3
  %50 = add nsw i32 %49, 1
  store i32 %50, ptr %5, align 4, !tbaa !3
  br label %81

51:                                               ; preds = %38, %33
  br label %52

52:                                               ; preds = %65, %51
  %53 = load ptr, ptr %4, align 8, !tbaa !254
  %54 = getelementptr inbounds nuw %struct.CvTreeNode, ptr %53, i32 0, i32 3
  %55 = load ptr, ptr %54, align 8, !tbaa !258
  %56 = icmp eq ptr %55, null
  br i1 %56, label %57, label %66

57:                                               ; preds = %52
  %58 = load ptr, ptr %4, align 8, !tbaa !254
  %59 = getelementptr inbounds nuw %struct.CvTreeNode, ptr %58, i32 0, i32 4
  %60 = load ptr, ptr %59, align 8, !tbaa !259
  store ptr %60, ptr %4, align 8, !tbaa !254
  %61 = load i32, ptr %5, align 4, !tbaa !3
  %62 = add nsw i32 %61, -1
  store i32 %62, ptr %5, align 4, !tbaa !3
  %63 = icmp slt i32 %62, 0
  br i1 %63, label %64, label %65

64:                                               ; preds = %57
  store ptr null, ptr %4, align 8, !tbaa !254
  br label %66

65:                                               ; preds = %57
  br label %52, !llvm.loop !260

66:                                               ; preds = %64, %52
  %67 = load ptr, ptr %4, align 8, !tbaa !254
  %68 = icmp ne ptr %67, null
  br i1 %68, label %69, label %78

69:                                               ; preds = %66
  %70 = load ptr, ptr %2, align 8, !tbaa !248
  %71 = getelementptr inbounds nuw %struct.CvTreeNodeIterator, ptr %70, i32 0, i32 2
  %72 = load i32, ptr %71, align 4, !tbaa !253
  %73 = icmp ne i32 %72, 0
  br i1 %73, label %74, label %78

74:                                               ; preds = %69
  %75 = load ptr, ptr %4, align 8, !tbaa !254
  %76 = getelementptr inbounds nuw %struct.CvTreeNode, ptr %75, i32 0, i32 3
  %77 = load ptr, ptr %76, align 8, !tbaa !258
  br label %79

78:                                               ; preds = %69, %66
  br label %79

79:                                               ; preds = %78, %74
  %80 = phi ptr [ %77, %74 ], [ null, %78 ]
  store ptr %80, ptr %4, align 8, !tbaa !254
  br label %81

81:                                               ; preds = %79, %45
  br label %82

82:                                               ; preds = %81, %24
  %83 = load ptr, ptr %4, align 8, !tbaa !254
  %84 = load ptr, ptr %2, align 8, !tbaa !248
  %85 = getelementptr inbounds nuw %struct.CvTreeNodeIterator, ptr %84, i32 0, i32 0
  store ptr %83, ptr %85, align 8, !tbaa !250
  %86 = load i32, ptr %5, align 4, !tbaa !3
  %87 = load ptr, ptr %2, align 8, !tbaa !248
  %88 = getelementptr inbounds nuw %struct.CvTreeNodeIterator, ptr %87, i32 0, i32 1
  store i32 %86, ptr %88, align 8, !tbaa !252
  %89 = load ptr, ptr %3, align 8, !tbaa !254
  call void @llvm.lifetime.end.p0(i64 4, ptr %5) #13
  call void @llvm.lifetime.end.p0(i64 8, ptr %4) #13
  call void @llvm.lifetime.end.p0(i64 8, ptr %3) #13
  ret ptr %89

90:                                               ; preds = %23
  %91 = load ptr, ptr %8, align 8
  %92 = load i32, ptr %9, align 4
  %93 = insertvalue { ptr, i32 } poison, ptr %91, 0
  %94 = insertvalue { ptr, i32 } %93, i32 %92, 1
  resume { ptr, i32 } %94
}