; Function Attrs: mustprogress uwtable
define ptr @cvNextTreeNode(ptr noundef %0) local_unnamed_addr #0 personality ptr @__gxx_personality_v0 {
  %2 = alloca %"class.std::__cxx11::basic_string", align 8
  %3 = alloca %"class.std::allocator", align 1
  %.not = icmp eq ptr %0, null
  br i1 %.not, label %4, label %14

4:                                                ; preds = %1
  call void @llvm.lifetime.start.p0(i64 32, ptr nonnull %2) #11
  call void @llvm.lifetime.start.p0(i64 1, ptr nonnull %3) #11
  call void @_ZNSt7__cxx1112basic_stringIcSt11char_traitsIcESaIcEEC2EPKcRKS3_(ptr noundef nonnull align 8 dereferenceable(32) %2, ptr noundef nonnull @.str.50, ptr noundef nonnull align 1 dereferenceable(1) %3)
  invoke void @_ZN2cv5errorEiRKNSt7__cxx1112basic_stringIcSt11char_traitsIcESaIcEEEPKcS9_i(i32 noundef -27, ptr noundef nonnull align 8 dereferenceable(32) %2, ptr noundef nonnull @__func__.cvNextTreeNode, ptr noundef nonnull @.str.1, i32 noundef 3462) #12
          to label %5 unwind label %6

5:                                                ; preds = %4
  unreachable

6:                                                ; preds = %4
  %7 = landingpad { ptr, i32 }
          cleanup
  %8 = load ptr, ptr %2, align 8, !tbaa !3
  %9 = getelementptr inbounds nuw i8, ptr %2, i64 16
  %10 = icmp eq ptr %8, %9
  br i1 %10, label %_ZNKSt7__cxx1112basic_stringIcSt11char_traitsIcESaIcEE11_M_is_localEv.exit.thread.i.i, label %_ZNKSt7__cxx1112basic_stringIcSt11char_traitsIcESaIcEE11_M_is_localEv.exit.i.i

_ZNKSt7__cxx1112basic_stringIcSt11char_traitsIcESaIcEE11_M_is_localEv.exit.thread.i.i: ; preds = %6
  %11 = getelementptr inbounds nuw i8, ptr %2, i64 8
  %12 = load i64, ptr %11, align 8, !tbaa !11
  %13 = icmp ult i64 %12, 16
  call void @llvm.assume(i1 %13)
  br label %_ZNSt7__cxx1112basic_stringIcSt11char_traitsIcESaIcEED2Ev.exit

_ZNKSt7__cxx1112basic_stringIcSt11char_traitsIcESaIcEE11_M_is_localEv.exit.i.i: ; preds = %6
  call void @_ZdlPv(ptr noundef %8) #13
  br label %_ZNSt7__cxx1112basic_stringIcSt11char_traitsIcESaIcEED2Ev.exit

_ZNSt7__cxx1112basic_stringIcSt11char_traitsIcESaIcEED2Ev.exit: ; preds = %_ZNKSt7__cxx1112basic_stringIcSt11char_traitsIcESaIcEE11_M_is_localEv.exit.i.i, %_ZNKSt7__cxx1112basic_stringIcSt11char_traitsIcESaIcEE11_M_is_localEv.exit.thread.i.i
  call void @llvm.lifetime.end.p0(i64 1, ptr nonnull %3) #11
  call void @llvm.lifetime.end.p0(i64 32, ptr nonnull %2) #11
  resume { ptr, i32 } %7

14:                                               ; preds = %1
  %15 = load ptr, ptr %0, align 8, !tbaa !214
  %16 = getelementptr inbounds nuw i8, ptr %0, i64 8
  %17 = load i32, ptr %16, align 8, !tbaa !216
  %.not34 = icmp eq ptr %15, null
  br i1 %.not34, label %.thread, label %18

18:                                               ; preds = %14
  %19 = getelementptr inbounds nuw i8, ptr %15, i64 32
  %20 = load ptr, ptr %19, align 8, !tbaa !208
  %.not35 = icmp eq ptr %20, null
  br i1 %.not35, label %26, label %21

21:                                               ; preds = %18
  %22 = add nsw i32 %17, 1
  %23 = getelementptr inbounds nuw i8, ptr %0, i64 12
  %24 = load i32, ptr %23, align 4, !tbaa !217
  %25 = icmp slt i32 %22, %24
  br i1 %25, label %.thread, label %26

26:                                               ; preds = %21, %18
  %smin = tail call i32 @llvm.smin.i32(i32 %17, i32 0)
  %27 = add i32 %smin, -1
  br label %28

28:                                               ; preds = %32, %26
  %.124 = phi ptr [ %15, %26 ], [ %34, %32 ]
  %.1 = phi i32 [ %17, %26 ], [ %35, %32 ]
  %29 = getelementptr inbounds nuw i8, ptr %.124, i64 16
  %30 = load ptr, ptr %29, align 8, !tbaa !211
  %31 = icmp eq ptr %30, null
  br i1 %31, label %32, label %37

32:                                               ; preds = %28
  %33 = getelementptr inbounds nuw i8, ptr %.124, i64 24
  %34 = load ptr, ptr %33, align 8, !tbaa !212
  %35 = add nsw i32 %.1, -1
  %36 = icmp slt i32 %.1, 1
  br i1 %36, label %.thread, label %28, !llvm.loop !213

37:                                               ; preds = %28
  %38 = getelementptr inbounds nuw i8, ptr %0, i64 12
  %39 = load i32, ptr %38, align 4, !tbaa !217
  %.not37 = icmp eq i32 %39, 0
  %spec.select = select i1 %.not37, ptr null, ptr %30
  br label %.thread

.thread:                                          ; preds = %32, %37, %21, %14
  %.023 = phi ptr [ null, %14 ], [ %20, %21 ], [ %spec.select, %37 ], [ null, %32 ]
  %.022 = phi i32 [ %17, %14 ], [ %22, %21 ], [ %.1, %37 ], [ %27, %32 ]
  store ptr %.023, ptr %0, align 8, !tbaa !214
  store i32 %.022, ptr %16, align 8, !tbaa !216
  ret ptr %15
}